; Function Attrs: nounwind uwtable
define dso_local range(i32 -1, 1) i32 @PyErr_WarnExplicitObject(ptr noundef %0, ptr noundef %1, ptr noundef %2, i32 noundef %3, ptr noundef %4, ptr noundef %5) local_unnamed_addr #0 {
  %7 = icmp eq ptr %0, null
  %8 = load ptr, ptr @PyExc_RuntimeWarning, align 8
  %spec.select = select i1 %7, ptr %8, ptr %0
  %9 = tail call align 8 ptr @llvm.threadlocal.address.p0(ptr align 8 @_Py_tss_tstate)
  %10 = load ptr, ptr %9, align 8, !tbaa !27
  %11 = icmp eq ptr %10, null
  br i1 %11, label %get_current_tstate.exit.thread, label %12

12:                                               ; preds = %6
  %13 = getelementptr inbounds nuw i8, ptr %10, i64 16
  %14 = load ptr, ptr %13, align 8, !tbaa !29
  %15 = icmp eq ptr %14, null
  br i1 %15, label %get_current_tstate.exit.thread, label %get_current_tstate.exit

get_current_tstate.exit.thread:                   ; preds = %6, %12
  %16 = load ptr, ptr @PyExc_RuntimeError, align 8, !tbaa !14
  tail call void @PyErr_SetString(ptr noundef %16, ptr noundef nonnull @.str.7) #7
  br label %Py_DECREF.exit

get_current_tstate.exit:                          ; preds = %12
  %17 = getelementptr inbounds nuw i8, ptr %14, i64 10696
  tail call void @_PyRecursiveMutex_Lock(ptr noundef nonnull %17) #7
  %18 = tail call fastcc ptr @warn_explicit(ptr noundef %10, ptr noundef %spec.select, ptr noundef %1, ptr noundef %2, i32 noundef %3, ptr noundef %4, ptr noundef %5, ptr noundef null, ptr noundef null)
  %19 = load ptr, ptr %13, align 8, !tbaa !29
  %20 = getelementptr inbounds nuw i8, ptr %19, i64 10696
  tail call void @_PyRecursiveMutex_Unlock(ptr noundef nonnull %20) #7
  %21 = icmp eq ptr %18, null
  br i1 %21, label %Py_DECREF.exit, label %22

22:                                               ; preds = %get_current_tstate.exit
  %23 = load i32, ptr %18, align 8, !tbaa !15
  %.not.i = icmp sgt i32 %23, -1
  br i1 %.not.i, label %24, label %Py_DECREF.exit

24:                                               ; preds = %22
  %25 = add nsw i32 %23, -1
  store i32 %25, ptr %18, align 8, !tbaa !15
  %26 = icmp eq i32 %25, 0
  br i1 %26, label %27, label %Py_DECREF.exit

27:                                               ; preds = %24
  tail call void @_Py_Dealloc(ptr noundef nonnull %18) #7
  br label %Py_DECREF.exit

Py_DECREF.exit:                                   ; preds = %27, %24, %22, %get_current_tstate.exit.thread, %get_current_tstate.exit
  %.0 = phi i32 [ -1, %get_current_tstate.exit ], [ -1, %get_current_tstate.exit.thread ], [ 0, %22 ], [ 0, %24 ], [ 0, %27 ]
  ret i32 %.0
}